target datalayout = "e-m:e-p270:32:32-p271:32:32-p272:64:64-i64:64-i128:128-f80:128-n8:16:32:64-S128"
target triple = "x86_64-pc-linux-gnu"

%"class.Gluco2::vec.0" = type { ptr, i32, i32 }
%"class.Gluco2::Solver" = type { ptr, i32, ptr, ptr, i32, i8, ptr, i64, %"class.Gluco2::vec", %"class.Gluco2::vec.0", i32, %"class.Gluco2::vec.1", %"class.Gluco2::vec.0", i32, i32, i32, double, double, double, double, i32, i32, i32, i32, i32, i32, double, double, double, double, i32, i32, i8, i8, double, ptr, i8, i64, i64, i64, i64, i64, i64, i64, i64, i64, i64, i64, i64, i64, i64, i64, i64, i64, i64, i64, i64, i64, i64, i32, i8, double, %"class.Gluco2::vec.2", double, %"class.Gluco2::OccLists", %"class.Gluco2::OccLists", %"class.Gluco2::vec.5", %"class.Gluco2::vec.5", %"class.Gluco2::vec.1", %"class.Gluco2::vec.4", %"class.Gluco2::vec.4", %"class.Gluco2::vec.0", %"class.Gluco2::vec", %"class.Gluco2::vec", %"class.Gluco2::vec.6", i32, i32, i64, %"class.Gluco2::vec.0", %"class.Gluco2::Heap", double, i8, %"class.Gluco2::vec.5", %"class.Gluco2::vec.0", %"class.Gluco2::ClauseAllocator", i32, %"class.Gluco2::bqueue", %"class.Gluco2::bqueue", float, i32, %"class.Gluco2::vec.4", %"class.Gluco2::vec.0", %"class.Gluco2::vec.0", %"class.Gluco2::vec.0", i32, double, double, i32, i64, i64, i8, i32, i32, double, double, i32, i32, %"class.Gluco2::vec", %"class.Gluco2::vec", i8, %"class.Gluco2::vec.7", %"class.Gluco2::vec.5", %"class.Gluco2::vec.0", %"class.Gluco2::vec.0", i32, i32, i32, i32, %"class.Gluco2::Heap2", %"class.Gluco2::vec", %"class.Gluco2::vec", i32, %"class.Gluco2::vec", %"class.Gluco2::vec.0" }
%"class.Gluco2::vec.2" = type { ptr, i32, i32 }
%"class.Gluco2::OccLists" = type { %"class.Gluco2::vec.3", %"class.Gluco2::vec.4", %"class.Gluco2::vec.0", %"struct.Gluco2::Solver::WatcherDeleted" }
%"class.Gluco2::vec.3" = type { ptr, i32, i32 }
%"struct.Gluco2::Solver::WatcherDeleted" = type { ptr }
%"class.Gluco2::vec.1" = type { ptr, i32, i32 }
%"class.Gluco2::vec.6" = type { ptr, i32, i32 }
%"class.Gluco2::Heap" = type { %"struct.Gluco2::Solver::VarOrderLt", %"class.Gluco2::vec", %"class.Gluco2::vec" }
%"struct.Gluco2::Solver::VarOrderLt" = type { ptr }
%"class.Gluco2::ClauseAllocator" = type { %"class.Gluco2::RegionAllocator.base", i8, [3 x i8] }
%"class.Gluco2::RegionAllocator.base" = type <{ ptr, i32, i32, i32 }>
%"class.Gluco2::bqueue" = type { %"class.Gluco2::vec.5", i32, i32, i64, i32, i32, i8, double, double }
%"class.Gluco2::vec.4" = type { ptr, i32, i32 }
%"class.Gluco2::vec.7" = type { ptr, i32, i32 }
%"class.Gluco2::vec.5" = type { ptr, i32, i32 }
%"class.Gluco2::Heap2" = type { %"struct.Gluco2::Solver::JustOrderLt2", %"class.Gluco2::vec.8", %"class.Gluco2::vec" }
%"struct.Gluco2::Solver::JustOrderLt2" = type { ptr }
%"class.Gluco2::vec.8" = type { ptr, i32, i32 }
%"class.Gluco2::vec" = type { ptr, i32, i32 }
%"class.Gluco2::SimpSolver" = type <{ %"class.Gluco2::Solver", i32, i32, i32, i32, double, i8, i8, i8, i8, i32, i32, i32, i32, i32, i8, [7 x i8], %"class.Gluco2::vec.5", %"class.Gluco2::vec.4", %"class.Gluco2::OccLists.9", %"class.Gluco2::vec", %"class.Gluco2::Heap.11", %"class.Gluco2::Queue", %"class.Gluco2::vec.4", %"class.Gluco2::vec.4", i32, i32, i32, [4 x i8] }>
%"class.Gluco2::OccLists.9" = type { %"class.Gluco2::vec.10", %"class.Gluco2::vec.4", %"class.Gluco2::vec", %"struct.Gluco2::SimpSolver::ClauseDeleted" }
%"class.Gluco2::vec.10" = type { ptr, i32, i32 }
%"struct.Gluco2::SimpSolver::ClauseDeleted" = type { ptr }
%"class.Gluco2::Heap.11" = type { %"struct.Gluco2::SimpSolver::ElimLt", %"class.Gluco2::vec", %"class.Gluco2::vec" }
%"struct.Gluco2::SimpSolver::ElimLt" = type { ptr }
%"class.Gluco2::Queue" = type { %"class.Gluco2::vec.5", i32, i32 }

; Function Attrs: mustprogress nounwind uwtable
define linkonce_odr noundef nonnull align 1 dereferenceable(1) ptr @_ZNK6Gluco23vecIcEixEi(ptr noundef nonnull align 8 dereferenceable(16) %0, i32 noundef %1) #0 comdat align 2 {
  %3 = alloca ptr, align 8
  %4 = alloca i32, align 4
  store ptr %0, ptr %3, align 8, !tbaa !240
  store i32 %1, ptr %4, align 4, !tbaa !12
  %5 = load ptr, ptr %3, align 8
  %6 = getelementptr inbounds nuw %"class.Gluco2::vec.4", ptr %5, i32 0, i32 0
  %7 = load ptr, ptr %6, align 8, !tbaa !243
  %8 = load i32, ptr %4, align 4, !tbaa !12
  %9 = sext i32 %8 to i64
  %10 = getelementptr inbounds i8, ptr %7, i64 %9
  ret ptr %10
}

; Function Attrs: mustprogress nounwind uwtable
define linkonce_odr noundef i32 @_ZNK6Gluco23vecIcE4sizeEv(ptr noundef nonnull align 8 dereferenceable(16) %0) #0 comdat align 2 {
  %2 = alloca ptr, align 8
  store ptr %0, ptr %2, align 8, !tbaa !240
  %3 = load ptr, ptr %2, align 8
  %4 = getelementptr inbounds nuw %"class.Gluco2::vec.4", ptr %3, i32 0, i32 1
  %5 = load i32, ptr %4, align 8, !tbaa !242
  ret i32 %5
}

; Function Attrs: inlinehint mustprogress nounwind uwtable
define linkonce_odr noundef zeroext i1 @_ZNK6Gluco210SimpSolver12isEliminatedEi(ptr noundef nonnull align 8 dereferenceable(1684) %0, i32 noundef %1) #4 comdat align 2 {
  %3 = alloca ptr, align 8
  %4 = alloca i32, align 4
  store ptr %0, ptr %3, align 8, !tbaa !3
  store i32 %1, ptr %4, align 4, !tbaa !12
  %5 = load ptr, ptr %3, align 8
  %6 = getelementptr inbounds nuw %"class.Gluco2::SimpSolver", ptr %5, i32 0, i32 24
  %7 = call noundef i32 @_ZNK6Gluco23vecIcE4sizeEv(ptr noundef nonnull align 8 dereferenceable(16) %6)
  %8 = icmp sgt i32 %7, 0
  br i1 %8, label %9, label %17

9:                                                ; preds = %2
  %10 = getelementptr inbounds nuw %"class.Gluco2::SimpSolver", ptr %5, i32 0, i32 24
  %11 = load i32, ptr %4, align 4, !tbaa !12
  %12 = call noundef nonnull align 1 dereferenceable(1) ptr @_ZNK6Gluco23vecIcEixEi(ptr noundef nonnull align 8 dereferenceable(16) %10, i32 noundef %11)
  %13 = load i8, ptr %12, align 1, !tbaa !77
  %14 = sext i8 %13 to i32
  %15 = icmp ne i32 %14, 0
  %16 = zext i1 %15 to i32
  br label %18

17:                                               ; preds = %2
  br label %18

18:                                               ; preds = %17, %9
  %19 = phi i32 [ %16, %9 ], [ 0, %17 ]
  %20 = icmp ne i32 %19, 0
  ret i1 %20
}

; Function Attrs: mustprogress nounwind uwtable
define i32 @bmcg2_sat_solver_var_is_elim(ptr noundef %0, i32 noundef %1) #0 {
  %3 = alloca ptr, align 8
  %4 = alloca i32, align 4
  store ptr %0, ptr %3, align 8, !tbaa !30
  store i32 %1, ptr %4, align 4, !tbaa !12
  %5 = load ptr, ptr %3, align 8, !tbaa !30
  %6 = load i32, ptr %4, align 4, !tbaa !12
  %7 = call noundef zeroext i1 @_ZNK6Gluco210SimpSolver12isEliminatedEi(ptr noundef nonnull align 8 dereferenceable(1684) %5, i32 noundef %6)
  %8 = zext i1 %7 to i32
  ret i32 %8
}