; Function Attrs: mustprogress nofree norecurse nosync nounwind willreturn memory(read, inaccessiblemem: none) uwtable
define range(i32 0, 2) i32 @bmcg2_sat_solver_var_is_elim(ptr noundef readonly captures(none) %0, i32 noundef %1) local_unnamed_addr #6 {
  %3 = getelementptr inbounds nuw i8, ptr %0, i64 1664
  %4 = load i32, ptr %3, align 8, !tbaa !71
  %5 = icmp sgt i32 %4, 0
  br i1 %5, label %6, label %_ZNK6Gluco210SimpSolver12isEliminatedEi.exit

6:                                                ; preds = %2
  %7 = getelementptr inbounds nuw i8, ptr %0, i64 1656
  %8 = load ptr, ptr %7, align 8, !tbaa !72
  %9 = sext i32 %1 to i64
  %10 = getelementptr inbounds i8, ptr %8, i64 %9
  %11 = load i8, ptr %10, align 1, !tbaa !73
  %12 = icmp ne i8 %11, 0
  %13 = zext i1 %12 to i32
  br label %_ZNK6Gluco210SimpSolver12isEliminatedEi.exit

_ZNK6Gluco210SimpSolver12isEliminatedEi.exit:     ; preds = %2, %6
  %14 = phi i32 [ %13, %6 ], [ 0, %2 ]
  ret i32 %14
}